; Function Attrs: mustprogress uwtable
define noundef i32 @_ZN2cv8Stitcher15composePanoramaERKNS_12_OutputArrayE(ptr noundef nonnull align 8 dereferenceable(560) %0, ptr noundef nonnull align 8 dereferenceable(24) %1) local_unnamed_addr #3 align 2 personality ptr @__gxx_personality_v0 {
  %3 = alloca %"class.cv::utils::trace::details::Region", align 8
  %4 = alloca %"class.cv::_InputArray", align 8
  %5 = alloca %"class.std::vector", align 8
  call void @llvm.lifetime.start.p0(i64 16, ptr nonnull %3) #26
  call void @_ZN2cv5utils5trace7details6RegionC1ERKNS3_21LocationStaticStorageE(ptr noundef nonnull align 8 dereferenceable(12) %3, ptr noundef nonnull align 8 dereferenceable(32) @_ZZN2cv8Stitcher15composePanoramaERKNS_12_OutputArrayEE25__cv_trace_location_fn123)
  call void @llvm.lifetime.start.p0(i64 24, ptr nonnull %4) #26
  call void @llvm.lifetime.start.p0(i64 24, ptr nonnull %5) #26
  %6 = getelementptr inbounds nuw i8, ptr %4, i64 16
  call void @llvm.memset.p0.i64(ptr noundef nonnull align 8 dereferenceable(24) %5, i8 0, i64 24, i1 false)
  store i32 0, ptr %6, align 8, !tbaa !221
  %7 = getelementptr inbounds nuw i8, ptr %4, i64 20
  store i32 0, ptr %7, align 4, !tbaa !223
  store i32 17498112, ptr %4, align 8, !tbaa !224
  %8 = getelementptr inbounds nuw i8, ptr %4, i64 8
  store ptr %5, ptr %8, align 8, !tbaa !226
  %9 = invoke noundef i32 @_ZN2cv8Stitcher15composePanoramaERKNS_11_InputArrayERKNS_12_OutputArrayE(ptr noundef nonnull align 8 dereferenceable(560) %0, ptr noundef nonnull align 8 dereferenceable(24) %4, ptr noundef nonnull align 8 dereferenceable(24) %1)
          to label %10 unwind label %23

10:                                               ; preds = %2
  %11 = load ptr, ptr %5, align 8, !tbaa !208
  %12 = getelementptr inbounds nuw i8, ptr %5, i64 8
  %13 = load ptr, ptr %12, align 8, !tbaa !207
  %.not4.i.i.i.i = icmp eq ptr %11, %13
  br i1 %.not4.i.i.i.i, label %_ZSt8_DestroyIPN2cv4UMatES1_EvT_S3_RSaIT0_E.exit.i, label %.lr.ph.i.i.i.i

.lr.ph.i.i.i.i:                                   ; preds = %10, %.lr.ph.i.i.i.i
  %.05.i.i.i.i = phi ptr [ %14, %.lr.ph.i.i.i.i ], [ %11, %10 ]
  call void @_ZN2cv4UMatD1Ev(ptr noundef nonnull align 8 dereferenceable(80) %.05.i.i.i.i) #26
  %14 = getelementptr inbounds nuw i8, ptr %.05.i.i.i.i, i64 80
  %.not.i.i.i.i = icmp eq ptr %14, %13
  br i1 %.not.i.i.i.i, label %_ZSt8_DestroyIPN2cv4UMatES1_EvT_S3_RSaIT0_E.exitthread-pre-split.i, label %.lr.ph.i.i.i.i, !llvm.loop !216

_ZSt8_DestroyIPN2cv4UMatES1_EvT_S3_RSaIT0_E.exitthread-pre-split.i: ; preds = %.lr.ph.i.i.i.i
  %.pr.i = load ptr, ptr %5, align 8, !tbaa !208
  br label %_ZSt8_DestroyIPN2cv4UMatES1_EvT_S3_RSaIT0_E.exit.i

_ZSt8_DestroyIPN2cv4UMatES1_EvT_S3_RSaIT0_E.exit.i: ; preds = %_ZSt8_DestroyIPN2cv4UMatES1_EvT_S3_RSaIT0_E.exitthread-pre-split.i, %10
  %15 = phi ptr [ %.pr.i, %_ZSt8_DestroyIPN2cv4UMatES1_EvT_S3_RSaIT0_E.exitthread-pre-split.i ], [ %11, %10 ]
  %.not.i.i.i = icmp eq ptr %15, null
  br i1 %.not.i.i.i, label %_ZNSt6vectorIN2cv4UMatESaIS1_EED2Ev.exit, label %16

16:                                               ; preds = %_ZSt8_DestroyIPN2cv4UMatES1_EvT_S3_RSaIT0_E.exit.i
  call void @_ZdlPv(ptr noundef nonnull %15) #27
  br label %_ZNSt6vectorIN2cv4UMatESaIS1_EED2Ev.exit

_ZNSt6vectorIN2cv4UMatESaIS1_EED2Ev.exit:         ; preds = %_ZSt8_DestroyIPN2cv4UMatES1_EvT_S3_RSaIT0_E.exit.i, %16
  call void @llvm.lifetime.end.p0(i64 24, ptr nonnull %5) #26
  call void @llvm.lifetime.end.p0(i64 24, ptr nonnull %4) #26
  %17 = getelementptr inbounds nuw i8, ptr %3, i64 8
  %18 = load i32, ptr %17, align 8, !tbaa !204
  %.not.i = icmp eq i32 %18, 0
  br i1 %.not.i, label %_ZN2cv5utils5trace7details6RegionD2Ev.exit, label %19

19:                                               ; preds = %_ZNSt6vectorIN2cv4UMatESaIS1_EED2Ev.exit
  invoke void @_ZN2cv5utils5trace7details6Region7destroyEv(ptr noundef nonnull align 8 dereferenceable(12) %3)
          to label %_ZN2cv5utils5trace7details6RegionD2Ev.exit unwind label %20

20:                                               ; preds = %19
  %21 = landingpad { ptr, i32 }
          catch ptr null
  %22 = extractvalue { ptr, i32 } %21, 0
  call void @__clang_call_terminate(ptr %22) #29
  unreachable

_ZN2cv5utils5trace7details6RegionD2Ev.exit:       ; preds = %_ZNSt6vectorIN2cv4UMatESaIS1_EED2Ev.exit, %19
  call void @llvm.lifetime.end.p0(i64 16, ptr nonnull %3) #26
  ret i32 0

23:                                               ; preds = %2
  %24 = landingpad { ptr, i32 }
          cleanup
  call void @_ZNSt6vectorIN2cv4UMatESaIS1_EED2Ev(ptr noundef nonnull align 8 dereferenceable(24) %5) #26
  call void @llvm.lifetime.end.p0(i64 24, ptr nonnull %5) #26
  call void @llvm.lifetime.end.p0(i64 24, ptr nonnull %4) #26
  call void @_ZN2cv5utils5trace7details6RegionD2Ev(ptr noundef nonnull align 8 dereferenceable(12) %3) #26
  call void @llvm.lifetime.end.p0(i64 16, ptr nonnull %3) #26
  resume { ptr, i32 } %24
}